target datalayout = "e-m:e-p270:32:32-p271:32:32-p272:64:64-i64:64-i128:128-f80:128-n8:16:32:64-S128"
target triple = "x86_64-pc-linux-gnu"

%struct.crypto_ex_data_st = type { ptr, ptr }
%struct.x509_store_ctx_st = type { ptr, ptr, ptr, ptr, ptr, ptr, ptr, ptr, ptr, ptr, ptr, ptr, ptr, ptr, ptr, ptr, ptr, ptr, i32, i32, ptr, ptr, i32, i32, i32, ptr, ptr, ptr, i32, i32, ptr, %struct.crypto_ex_data_st, ptr, i32, ptr, ptr, ptr }

; Function Attrs: nounwind uwtable
define i32 @X509_STORE_CTX_init_rpk(ptr noundef %0, ptr noundef %1, ptr noundef %2) #0 {
  %4 = alloca i32, align 4
  %5 = alloca ptr, align 8
  %6 = alloca ptr, align 8
  %7 = alloca ptr, align 8
  store ptr %0, ptr %5, align 8, !tbaa !40
  store ptr %1, ptr %6, align 8, !tbaa !132
  store ptr %2, ptr %7, align 8, !tbaa !10
  %8 = load ptr, ptr %5, align 8, !tbaa !40
  %9 = load ptr, ptr %6, align 8, !tbaa !132
  %10 = call i32 @X509_STORE_CTX_init(ptr noundef %8, ptr noundef %9, ptr noundef null, ptr noundef null)
  %11 = icmp ne i32 %10, 0
  br i1 %11, label %13, label %12

12:                                               ; preds = %3
  store i32 0, ptr %4, align 4
  br label %17

13:                                               ; preds = %3
  %14 = load ptr, ptr %7, align 8, !tbaa !10
  %15 = load ptr, ptr %5, align 8, !tbaa !40
  %16 = getelementptr inbounds nuw %struct.x509_store_ctx_st, ptr %15, i32 0, i32 34
  store ptr %14, ptr %16, align 8, !tbaa !42
  store i32 1, ptr %4, align 4
  br label %17

17:                                               ; preds = %13, %12
  %18 = load i32, ptr %4, align 4
  ret i32 %18
}