; Function Attrs: nounwind uwtable
define range(i32 0, 2) i32 @X509_STORE_CTX_init_rpk(ptr noundef %0, ptr noundef %1, ptr noundef %2) local_unnamed_addr #0 {
  %4 = tail call i32 @X509_STORE_CTX_init(ptr noundef %0, ptr noundef %1, ptr noundef null, ptr noundef null)
  %.not = icmp eq i32 %4, 0
  br i1 %.not, label %7, label %5

5:                                                ; preds = %3
  %6 = getelementptr inbounds nuw i8, ptr %0, i64 256
  store ptr %2, ptr %6, align 8, !tbaa !35
  br label %7

7:                                                ; preds = %3, %5
  %.0 = phi i32 [ 1, %5 ], [ 0, %3 ]
  ret i32 %.0
}